; ModuleID = '33/2818.c'
source_filename = "33/2818.c"
target datalayout = "e-m:e-p270:32:32-p271:32:32-p272:64:64-i64:64-f80:128-n8:16:32:64-S128"
target triple = "x86_64-pc-linux-gnu"

@.str = private unnamed_addr constant [3 x i8] c"%d\00", align 1
@.str.1 = private unnamed_addr constant [3 x i8] c"%s\00", align 1
@.str.2 = private unnamed_addr constant [4 x i8] c"%s\0A\00", align 1

; Function Attrs: noinline nounwind uwtable
define dso_local i32 @main() #0 {
  %1 = alloca i32, align 4
  %2 = alloca i32, align 4
  %3 = alloca i32, align 4
  %4 = alloca i32, align 4
  %5 = alloca [1000 x [255 x i8]], align 16
  store i32 0, i32* %1, align 4
  %6 = call i32 (i8*, ...) @__isoc99_scanf(i8* getelementptr inbounds ([3 x i8], [3 x i8]* @.str, i64 0, i64 0), i32* %2)
  store i32 0, i32* %3, align 4
  br label %7

7:                                                ; preds = %107, %0
  %8 = load i32, i32* %3, align 4
  %9 = load i32, i32* %2, align 4
  %10 = icmp slt i32 %8, %9
  br i1 %10, label %11, label %110

11:                                               ; preds = %7
  %12 = load i32, i32* %3, align 4
  %13 = sext i32 %12 to i64
  %14 = getelementptr inbounds [1000 x [255 x i8]], [1000 x [255 x i8]]* %5, i64 0, i64 %13
  %15 = getelementptr inbounds [255 x i8], [255 x i8]* %14, i64 0, i64 0
  %16 = call i32 (i8*, ...) @__isoc99_scanf(i8* getelementptr inbounds ([3 x i8], [3 x i8]* @.str.1, i64 0, i64 0), i8* %15)
  store i32 0, i32* %4, align 4
  br label %17

17:                                               ; preds = %98, %11
  %18 = load i32, i32* %3, align 4
  %19 = sext i32 %18 to i64
  %20 = getelementptr inbounds [1000 x [255 x i8]], [1000 x [255 x i8]]* %5, i64 0, i64 %19
  %21 = load i32, i32* %4, align 4
  %22 = sext i32 %21 to i64
  %23 = getelementptr inbounds [255 x i8], [255 x i8]* %20, i64 0, i64 %22
  %24 = load i8, i8* %23, align 1
  %25 = icmp ne i8 %24, 0
  br i1 %25, label %26, label %101

26:                                               ; preds = %17
  %27 = load i32, i32* %3, align 4
  %28 = sext i32 %27 to i64
  %29 = getelementptr inbounds [1000 x [255 x i8]], [1000 x [255 x i8]]* %5, i64 0, i64 %28
  %30 = load i32, i32* %4, align 4
  %31 = sext i32 %30 to i64
  %32 = getelementptr inbounds [255 x i8], [255 x i8]* %29, i64 0, i64 %31
  %33 = load i8, i8* %32, align 1
  %34 = sext i8 %33 to i32
  %35 = icmp eq i32 %34, 65
  br i1 %35, label %36, label %43

36:                                               ; preds = %26
  %37 = load i32, i32* %3, align 4
  %38 = sext i32 %37 to i64
  %39 = getelementptr inbounds [1000 x [255 x i8]], [1000 x [255 x i8]]* %5, i64 0, i64 %38
  %40 = load i32, i32* %4, align 4
  %41 = sext i32 %40 to i64
  %42 = getelementptr inbounds [255 x i8], [255 x i8]* %39, i64 0, i64 %41
  store i8 84, i8* %42, align 1
  br label %97

43:                                               ; preds = %26
  %44 = load i32, i32* %3, align 4
  %45 = sext i32 %44 to i64
  %46 = getelementptr inbounds [1000 x [255 x i8]], [1000 x [255 x i8]]* %5, i64 0, i64 %45
  %47 = load i32, i32* %4, align 4
  %48 = sext i32 %47 to i64
  %49 = getelementptr inbounds [255 x i8], [255 x i8]* %46, i64 0, i64 %48
  %50 = load i8, i8* %49, align 1
  %51 = sext i8 %50 to i32
  %52 = icmp eq i32 %51, 84
  br i1 %52, label %53, label %60

53:                                               ; preds = %43
  %54 = load i32, i32* %3, align 4
  %55 = sext i32 %54 to i64
  %56 = getelementptr inbounds [1000 x [255 x i8]], [1000 x [255 x i8]]* %5, i64 0, i64 %55
  %57 = load i32, i32* %4, align 4
  %58 = sext i32 %57 to i64
  %59 = getelementptr inbounds [255 x i8], [255 x i8]* %56, i64 0, i64 %58
  store i8 65, i8* %59, align 1
  br label %96

60:                                               ; preds = %43
  %61 = load i32, i32* %3, align 4
  %62 = sext i32 %61 to i64
  %63 = getelementptr inbounds [1000 x [255 x i8]], [1000 x [255 x i8]]* %5, i64 0, i64 %62
  %64 = load i32, i32* %4, align 4
  %65 = sext i32 %64 to i64
  %66 = getelementptr inbounds [255 x i8], [255 x i8]* %63, i64 0, i64 %65
  %67 = load i8, i8* %66, align 1
  %68 = sext i8 %67 to i32
  %69 = icmp eq i32 %68, 67
  br i1 %69, label %70, label %77

70:                                               ; preds = %60
  %71 = load i32, i32* %3, align 4
  %72 = sext i32 %71 to i64
  %73 = getelementptr inbounds [1000 x [255 x i8]], [1000 x [255 x i8]]* %5, i64 0, i64 %72
  %74 = load i32, i32* %4, align 4
  %75 = sext i32 %74 to i64
  %76 = getelementptr inbounds [255 x i8], [255 x i8]* %73, i64 0, i64 %75
  store i8 71, i8* %76, align 1
  br label %95

77:                                               ; preds = %60
  %78 = load i32, i32* %3, align 4
  %79 = sext i32 %78 to i64
  %80 = getelementptr inbounds [1000 x [255 x i8]], [1000 x [255 x i8]]* %5, i64 0, i64 %79
  %81 = load i32, i32* %4, align 4
  %82 = sext i32 %81 to i64
  %83 = getelementptr inbounds [255 x i8], [255 x i8]* %80, i64 0, i64 %82
  %84 = load i8, i8* %83, align 1
  %85 = sext i8 %84 to i32
  %86 = icmp eq i32 %85, 71
  br i1 %86, label %87, label %94

87:                                               ; preds = %77
  %88 = load i32, i32* %3, align 4
  %89 = sext i32 %88 to i64
  %90 = getelementptr inbounds [1000 x [255 x i8]], [1000 x [255 x i8]]* %5, i64 0, i64 %89
  %91 = load i32, i32* %4, align 4
  %92 = sext i32 %91 to i64
  %93 = getelementptr inbounds [255 x i8], [255 x i8]* %90, i64 0, i64 %92
  store i8 67, i8* %93, align 1
  br label %94

94:                                               ; preds = %87, %77
  br label %95

95:                                               ; preds = %94, %70
  br label %96

96:                                               ; preds = %95, %53
  br label %97

97:                                               ; preds = %96, %36
  br label %98

98:                                               ; preds = %97
  %99 = load i32, i32* %4, align 4
  %100 = add nsw i32 %99, 1
  store i32 %100, i32* %4, align 4
  br label %17

101:                                              ; preds = %17
  %102 = load i32, i32* %3, align 4
  %103 = sext i32 %102 to i64
  %104 = getelementptr inbounds [1000 x [255 x i8]], [1000 x [255 x i8]]* %5, i64 0, i64 %103
  %105 = getelementptr inbounds [255 x i8], [255 x i8]* %104, i64 0, i64 0
  %106 = call i32 (i8*, ...) @printf(i8* getelementptr inbounds ([4 x i8], [4 x i8]* @.str.2, i64 0, i64 0), i8* %105)
  br label %107

107:                                              ; preds = %101
  %108 = load i32, i32* %3, align 4
  %109 = add nsw i32 %108, 1
  store i32 %109, i32* %3, align 4
  br label %7

110:                                              ; preds = %7
  ret i32 0
}

declare dso_local i32 @__isoc99_scanf(i8*, ...) #1

declare dso_local i32 @printf(i8*, ...) #1


!llvm.module.flags = !{!0}
!llvm.ident = !{!1}

!0 = !{i32 1, !"wchar_size", i32 4}
!1 = !{!"clang version 10.0.0-4ubuntu1 "}
